; Function Attrs: nounwind uwtable
define dso_local range(i32 0, 101) i32 @Curl_dyn_addn(ptr noundef captures(none) %0, ptr noundef readonly captures(none) %1, i64 noundef %2) local_unnamed_addr #1 {
  %4 = getelementptr inbounds nuw i8, ptr %0, i64 8
  %5 = load i64, ptr %4, align 8, !tbaa !13
  %6 = getelementptr inbounds nuw i8, ptr %0, i64 16
  %7 = add i64 %5, %2
  %8 = add i64 %7, 1
  %9 = getelementptr inbounds nuw i8, ptr %0, i64 24
  %10 = load i64, ptr %9, align 8, !tbaa !4
  %11 = icmp ugt i64 %8, %10
  br i1 %11, label %12, label %15

12:                                               ; preds = %3
  %13 = load ptr, ptr @Curl_cfree, align 8, !tbaa !11
  %14 = load ptr, ptr %0, align 8, !tbaa !12
  tail call void %13(ptr noundef %14) #12
  tail call void @llvm.memset.p0.i64(ptr noundef nonnull align 8 dereferenceable(24) %0, i8 0, i64 24, i1 false)
  br label %dyn_nappend.exit

15:                                               ; preds = %3
  %16 = load i64, ptr %6, align 8, !tbaa !15
  %.not.i = icmp eq i64 %16, 0
  br i1 %.not.i, label %17, label %.preheader.i

17:                                               ; preds = %15
  %18 = icmp ult i64 %10, 32
  br i1 %18, label %23, label %19

19:                                               ; preds = %17
  %..i = tail call i64 @llvm.umax.i64(i64 %8, i64 32)
  br label %23

.preheader.i:                                     ; preds = %15, %.preheader.i
  %.040.i = phi i64 [ %21, %.preheader.i ], [ %16, %15 ]
  %20 = icmp ult i64 %.040.i, %8
  %21 = shl i64 %.040.i, 1
  br i1 %20, label %.preheader.i, label %22, !llvm.loop !16

22:                                               ; preds = %.preheader.i
  %spec.select.i = tail call i64 @llvm.umin.i64(i64 %.040.i, i64 %10)
  br label %23

23:                                               ; preds = %22, %19, %17
  %.141.i = phi i64 [ %10, %17 ], [ %..i, %19 ], [ %spec.select.i, %22 ]
  %.not48.i = icmp eq i64 %.141.i, %16
  %.pre51.pre.i = load ptr, ptr %0, align 8, !tbaa !12
  br i1 %.not48.i, label %30, label %24

24:                                               ; preds = %23
  %25 = load ptr, ptr @Curl_crealloc, align 8, !tbaa !11
  %26 = tail call ptr %25(ptr noundef %.pre51.pre.i, i64 noundef %.141.i) #12
  %.not49.not.i = icmp eq ptr %26, null
  br i1 %.not49.not.i, label %.thread.i, label %29

.thread.i:                                        ; preds = %24
  %27 = load ptr, ptr @Curl_cfree, align 8, !tbaa !11
  %28 = load ptr, ptr %0, align 8, !tbaa !12
  tail call void %27(ptr noundef %28) #12
  tail call void @llvm.memset.p0.i64(ptr noundef nonnull align 8 dereferenceable(24) %0, i8 0, i64 24, i1 false)
  br label %dyn_nappend.exit

29:                                               ; preds = %24
  store ptr %26, ptr %0, align 8, !tbaa !12
  store i64 %.141.i, ptr %6, align 8, !tbaa !15
  br label %30

30:                                               ; preds = %29, %23
  %.pre51.i = phi ptr [ %26, %29 ], [ %.pre51.pre.i, %23 ]
  %.not50.i = icmp eq i64 %2, 0
  br i1 %.not50.i, label %33, label %31

31:                                               ; preds = %30
  %32 = getelementptr inbounds nuw i8, ptr %.pre51.i, i64 %5
  tail call void @llvm.memcpy.p0.p0.i64(ptr align 1 %32, ptr readonly align 1 %1, i64 %2, i1 false)
  %.pre.i = load ptr, ptr %0, align 8, !tbaa !12
  br label %33

33:                                               ; preds = %31, %30
  %34 = phi ptr [ %.pre.i, %31 ], [ %.pre51.i, %30 ]
  store i64 %7, ptr %4, align 8, !tbaa !13
  %35 = getelementptr inbounds nuw i8, ptr %34, i64 %7
  store i8 0, ptr %35, align 1, !tbaa !14
  br label %dyn_nappend.exit

dyn_nappend.exit:                                 ; preds = %12, %.thread.i, %33
  %.0.i = phi i32 [ 100, %12 ], [ 0, %33 ], [ 27, %.thread.i ]
  ret i32 %.0.i
}